; Function Attrs: null_pointer_is_valid sspstrong uwtable
define internal i32 @dissect_epon(ptr noundef %0, ptr noundef %1, ptr noundef %2, ptr readnone captures(none) %3) #0 {
  %5 = tail call i32 @tvb_get_ntohl(ptr noundef %0, i32 noundef 0)
  %6 = icmp eq i32 %5, 1431688533
  br i1 %6, label %17, label %7

7:                                                ; preds = %4
  %8 = tail call i32 @tvb_get_ntoh24(ptr noundef %0, i32 noundef 0)
  %9 = icmp eq i32 %8, 5625173
  br i1 %9, label %17, label %10

10:                                               ; preds = %7
  %11 = tail call zeroext i16 @tvb_get_ntohs(ptr noundef %0, i32 noundef 0)
  %12 = icmp eq i16 %11, -10923
  br i1 %12, label %17, label %13

13:                                               ; preds = %10
  %14 = load i32, ptr @proto_epon, align 4
  %15 = tail call ptr @proto_tree_add_item(ptr noundef %2, i32 noundef %14, ptr noundef %0, i32 noundef 0, i32 noundef 0, i32 noundef 0)
  %16 = tail call ptr @expert_add_info(ptr noundef %1, ptr noundef %15, ptr noundef nonnull @ei_epon_sld_bad)
  br label %83

17:                                               ; preds = %10, %7, %4
  %.082 = phi i32 [ 2, %4 ], [ 1, %7 ], [ 0, %10 ]
  %18 = getelementptr inbounds nuw i8, ptr %1, i64 8
  %19 = load ptr, ptr %18, align 8
  tail call void @col_set_str(ptr noundef %19, i32 noundef 35, ptr noundef nonnull @.str.36)
  %20 = load ptr, ptr %18, align 8
  tail call void @col_set_str(ptr noundef %20, i32 noundef 25, ptr noundef nonnull @.str.42)
  %21 = load i32, ptr @proto_epon, align 4
  %22 = tail call ptr @proto_tree_add_item(ptr noundef %2, i32 noundef %21, ptr noundef %0, i32 noundef %.082, i32 noundef 6, i32 noundef 0)
  %23 = load i32, ptr @ett_epon, align 4
  %24 = tail call ptr @proto_item_add_subtree(ptr noundef %22, i32 noundef %23)
  %25 = add nuw nsw i32 %.082, 2
  %26 = tail call zeroext i8 @tvb_get_uint8(ptr noundef %0, i32 noundef %25)
  %.not84 = icmp eq i8 %26, 85
  br i1 %.not84, label %53, label %27

27:                                               ; preds = %17
  %28 = zext i8 %26 to i32
  %29 = load i32, ptr @hf_epon_dpoe_security, align 4
  %30 = tail call ptr @proto_tree_add_item(ptr noundef %24, i32 noundef %29, ptr noundef %0, i32 noundef %25, i32 noundef 1, i32 noundef 0)
  %31 = load i32, ptr @ett_epon_sec, align 4
  %32 = tail call ptr @proto_item_add_subtree(ptr noundef %30, i32 noundef %31)
  %33 = and i32 %28, 252
  %34 = and i32 %28, 2
  %.not85 = icmp eq i32 %34, 0
  tail call void (ptr, ptr, ...) @proto_item_append_text(ptr noundef %30, ptr noundef nonnull @.str.43)
  br i1 %.not85, label %37, label %35

35:                                               ; preds = %27
  %36 = and i32 %28, 1
  tail call void (ptr, ptr, ...) @proto_item_append_text(ptr noundef %30, ptr noundef nonnull @.str.44, i32 noundef %36)
  br label %38

37:                                               ; preds = %27
  tail call void (ptr, ptr, ...) @proto_item_append_text(ptr noundef %30, ptr noundef nonnull @.str.45)
  br label %38

38:                                               ; preds = %37, %35
  tail call void (ptr, ptr, ...) @proto_item_append_text(ptr noundef %30, ptr noundef nonnull @.str.46)
  %.not86 = icmp eq i32 %33, 84
  br i1 %.not86, label %43, label %39

39:                                               ; preds = %38
  %40 = load i32, ptr @hf_epon_dpoe_reserved, align 4
  %41 = tail call ptr @proto_tree_add_item(ptr noundef %32, i32 noundef %40, ptr noundef %0, i32 noundef %25, i32 noundef 1, i32 noundef 0)
  %42 = tail call ptr @expert_add_info(ptr noundef %1, ptr noundef %32, ptr noundef nonnull @ei_epon_dpoe_reserved_bad)
  br label %43

43:                                               ; preds = %39, %38
  %44 = load i32, ptr @hf_epon_dpoe_encrypted, align 4
  %45 = tail call ptr @proto_tree_add_item(ptr noundef %32, i32 noundef %44, ptr noundef %0, i32 noundef %25, i32 noundef 1, i32 noundef 0)
  %46 = load i32, ptr @hf_epon_dpoe_keyid, align 4
  %47 = tail call ptr @proto_tree_add_item(ptr noundef %32, i32 noundef %46, ptr noundef %0, i32 noundef %25, i32 noundef 1, i32 noundef 0)
  %48 = and i32 %28, 3
  %or.cond = icmp eq i32 %48, 0
  br i1 %or.cond, label %49, label %51

49:                                               ; preds = %43
  %50 = tail call ptr @expert_add_info(ptr noundef %1, ptr noundef %32, ptr noundef nonnull @ei_epon_dpoe_bad)
  br label %51

51:                                               ; preds = %49, %43
  %52 = icmp ne i32 %34, 0
  br label %53

53:                                               ; preds = %51, %17
  %.081 = phi i1 [ %52, %51 ], [ false, %17 ]
  %54 = load i32, ptr @hf_epon_mode, align 4
  %55 = add nuw nsw i32 %.082, 3
  %56 = tail call ptr @proto_tree_add_item(ptr noundef %24, i32 noundef %54, ptr noundef %0, i32 noundef %55, i32 noundef 2, i32 noundef 0)
  %57 = load i32, ptr @hf_epon_llid, align 4
  %58 = tail call ptr @proto_tree_add_item(ptr noundef %24, i32 noundef %57, ptr noundef %0, i32 noundef %55, i32 noundef 2, i32 noundef 0)
  %59 = add nuw nsw i32 %.082, 5
  %60 = tail call zeroext i8 @tvb_get_uint8(ptr noundef %0, i32 noundef %59)
  %61 = trunc nuw nsw i32 %.082 to i8
  %62 = tail call zeroext i8 @get_crc8_ieee8023_epon(ptr noundef %0, i8 noundef zeroext 5, i8 noundef zeroext %61)
  %63 = zext i8 %62 to i32
  %64 = load i32, ptr @hf_epon_checksum, align 4
  %65 = load i32, ptr @hf_epon_checksum_status, align 4
  %66 = tail call ptr @proto_tree_add_checksum(ptr noundef %24, ptr noundef %0, i32 noundef %59, i32 noundef %64, i32 noundef %65, ptr noundef nonnull @ei_epon_checksum_bad, ptr noundef %1, i32 noundef %63, i32 noundef 0, i32 noundef 1)
  %.not = icmp eq i8 %60, %62
  br i1 %.not, label %69, label %67

67:                                               ; preds = %53
  %68 = load ptr, ptr %18, align 8
  tail call void @col_append_str(ptr noundef %68, i32 noundef 25, ptr noundef nonnull @.str.47)
  br label %69

69:                                               ; preds = %67, %53
  br i1 %.081, label %70, label %76

70:                                               ; preds = %69
  %71 = load i32, ptr @hf_epon_dpoe_encrypted_data, align 4
  %72 = add nuw nsw i32 %.082, 6
  %73 = tail call ptr @proto_tree_add_item(ptr noundef %2, i32 noundef %71, ptr noundef %0, i32 noundef %72, i32 noundef -1, i32 noundef 0)
  %74 = tail call ptr @expert_add_info(ptr noundef %1, ptr noundef %73, ptr noundef nonnull @ei_epon_dpoe_encrypted_data)
  %75 = load ptr, ptr %18, align 8
  tail call void @col_append_str(ptr noundef %75, i32 noundef 25, ptr noundef nonnull @.str.48)
  br label %81

76:                                               ; preds = %69
  %77 = add nuw nsw i32 %.082, 6
  %78 = tail call ptr @tvb_new_subset_remaining(ptr noundef %0, i32 noundef %77)
  %79 = load ptr, ptr @eth_maybefcs_handle, align 8
  %80 = tail call i32 @call_dissector(ptr noundef %79, ptr noundef %78, ptr noundef %1, ptr noundef %2)
  br label %81

81:                                               ; preds = %76, %70
  %82 = tail call i32 @tvb_captured_length(ptr noundef %0)
  br label %83

83:                                               ; preds = %81, %13
  %.0 = phi i32 [ %82, %81 ], [ 0, %13 ]
  ret i32 %.0
}